; Function Attrs: mustprogress uwtable
define internal fastcc noundef i64 @_ZN12_GLOBAL__N_120collectPathsForDebugERNSt7__cxx1112basic_stringIcSt11char_traitsIcESaIcEEERK12cmSearchPathm(ptr noundef nonnull align 8 dereferenceable(32) %0, ptr nocapture noundef nonnull readonly align 8 dereferenceable(32) %1, i64 noundef %2) unnamed_addr #3 personality ptr @__gxx_personality_v0 {
  %4 = alloca %"class.std::__cxx11::basic_string", align 8
  %5 = alloca %"class.std::__cxx11::basic_string", align 8
  %6 = getelementptr inbounds i8, ptr %1, i64 8
  %7 = load ptr, ptr %6, align 8
  %8 = getelementptr inbounds i8, ptr %1, i64 16
  %9 = load ptr, ptr %8, align 8
  %10 = icmp eq ptr %7, %9
  br i1 %10, label %16, label %.preheader

.preheader:                                       ; preds = %3
  %11 = ptrtoint ptr %9 to i64
  %12 = ptrtoint ptr %7 to i64
  %13 = sub i64 %11, %12
  %14 = ashr exact i64 %13, 6
  %15 = icmp ugt i64 %14, %2
  br i1 %15, label %.lr.ph, label %.loopexit

16:                                               ; preds = %3
  %17 = tail call noundef nonnull align 8 dereferenceable(32) ptr @_ZNSt7__cxx1112basic_stringIcSt11char_traitsIcESaIcEEpLEPKc(ptr noundef nonnull align 8 dereferenceable(32) %0, ptr noundef nonnull @.str.262)
  br label %.loopexit

.lr.ph:                                           ; preds = %.preheader, %23
  %18 = phi ptr [ %26, %23 ], [ %7, %.preheader ]
  %.01419 = phi i64 [ %24, %23 ], [ %2, %.preheader ]
  %19 = getelementptr inbounds %"struct.cmSearchPath::PathWithPrefix", ptr %18, i64 %.01419
  call void @_ZStplIcSt11char_traitsIcESaIcEENSt7__cxx1112basic_stringIT_T0_T1_EEPKS5_RKS8_(ptr dead_on_unwind nonnull writable sret(%"class.std::__cxx11::basic_string") align 8 %5, ptr noundef nonnull @.str.70, ptr noundef nonnull align 8 dereferenceable(32) %19)
  %20 = invoke noundef nonnull align 8 dereferenceable(32) ptr @_ZNSt7__cxx1112basic_stringIcSt11char_traitsIcESaIcEE6appendEPKc(ptr noundef nonnull align 8 dereferenceable(32) %5, ptr noundef nonnull @.str.71)
          to label %21 unwind label %32

21:                                               ; preds = %.lr.ph
  call void @_ZNSt7__cxx1112basic_stringIcSt11char_traitsIcESaIcEEC1EOS4_(ptr noundef nonnull align 8 dereferenceable(32) %4, ptr noundef nonnull align 8 dereferenceable(32) %20) #23
  %22 = invoke noundef nonnull align 8 dereferenceable(32) ptr @_ZNSt7__cxx1112basic_stringIcSt11char_traitsIcESaIcEEpLERKS4_(ptr noundef nonnull align 8 dereferenceable(32) %0, ptr noundef nonnull align 8 dereferenceable(32) %4)
          to label %23 unwind label %34

23:                                               ; preds = %21
  call void @_ZNSt7__cxx1112basic_stringIcSt11char_traitsIcESaIcEED1Ev(ptr noundef nonnull align 8 dereferenceable(32) %4) #23
  call void @_ZNSt7__cxx1112basic_stringIcSt11char_traitsIcESaIcEED1Ev(ptr noundef nonnull align 8 dereferenceable(32) %5) #23
  %24 = add nuw i64 %.01419, 1
  %25 = load ptr, ptr %8, align 8
  %26 = load ptr, ptr %6, align 8
  %27 = ptrtoint ptr %25 to i64
  %28 = ptrtoint ptr %26 to i64
  %29 = sub i64 %27, %28
  %30 = ashr exact i64 %29, 6
  %31 = icmp ult i64 %24, %30
  br i1 %31, label %.lr.ph, label %.loopexit, !llvm.loop !873

32:                                               ; preds = %.lr.ph
  %33 = landingpad { ptr, i32 }
          cleanup
  br label %36

34:                                               ; preds = %21
  %35 = landingpad { ptr, i32 }
          cleanup
  call void @_ZNSt7__cxx1112basic_stringIcSt11char_traitsIcESaIcEED1Ev(ptr noundef nonnull align 8 dereferenceable(32) %4) #23
  br label %36

36:                                               ; preds = %34, %32
  %.pn = phi { ptr, i32 } [ %35, %34 ], [ %33, %32 ]
  call void @_ZNSt7__cxx1112basic_stringIcSt11char_traitsIcESaIcEED1Ev(ptr noundef nonnull align 8 dereferenceable(32) %5) #23
  resume { ptr, i32 } %.pn

.loopexit:                                        ; preds = %23, %.preheader, %16
  %.015 = phi i64 [ 0, %16 ], [ %14, %.preheader ], [ %30, %23 ]
  ret i64 %.015
}